TN:
SF:/Library/Developer/CommandLineTools/SDKs/MacOSX.sdk/usr/include/c++/v1/__debug
FN:214,_ZNSt3__119__debug_db_insert_cB7v160006INS_12basic_stringIcNS_11char_traitsIcEENS_9allocatorIcEEEEEEvPT_
FNDA:105,_ZNSt3__119__debug_db_insert_cB7v160006INS_12basic_stringIcNS_11char_traitsIcEENS_9allocatorIcEEEEEEvPT_
FNF:1
FNH:1
DA:214,105
DA:221,105
LF:2
LH:2
end_of_record
TN:
SF:/Library/Developer/CommandLineTools/SDKs/MacOSX.sdk/usr/include/c++/v1/__iterator/ostreambuf_iterator.h
FN:51,52,_ZNSt3__119ostreambuf_iteratorIcNS_11char_traitsIcEEEC1B7v160006ERNS_13basic_ostreamIcS2_EE
FN:51,52,_ZNSt3__119ostreambuf_iteratorIcNS_11char_traitsIcEEEC2B7v160006ERNS_13basic_ostreamIcS2_EE
FN:64,64,_ZNKSt3__119ostreambuf_iteratorIcNS_11char_traitsIcEEE6failedB7v160006Ev
FNDA:457,_ZNSt3__119ostreambuf_iteratorIcNS_11char_traitsIcEEEC1B7v160006ERNS_13basic_ostreamIcS2_EE
FNDA:457,_ZNSt3__119ostreambuf_iteratorIcNS_11char_traitsIcEEEC2B7v160006ERNS_13basic_ostreamIcS2_EE
FNDA:457,_ZNKSt3__119ostreambuf_iteratorIcNS_11char_traitsIcEEE6failedB7v160006Ev
FNF:3
FNH:3
DA:51,914
DA:52,914
DA:64,457
LF:3
LH:3
end_of_record
TN:
SF:/Library/Developer/CommandLineTools/SDKs/MacOSX.sdk/usr/include/c++/v1/__locale
FN:256,_ZNSt3__19use_facetB7v160006INS_5ctypeIcEEEERKT_RKNS_6localeE
FN:738,_ZNKSt3__15ctypeIcE5widenB7v160006Ec
FNDA:43,_ZNSt3__19use_facetB7v160006INS_5ctypeIcEEEERKT_RKNS_6localeE
FNDA:43,_ZNKSt3__15ctypeIcE5widenB7v160006Ec
FNF:2
FNH:2
DA:256,43
DA:258,43
DA:738,43
DA:740,43
LF:4
LH:4
end_of_record
TN:
SF:/Library/Developer/CommandLineTools/SDKs/MacOSX.sdk/usr/include/c++/v1/__memory/allocator.h
FN:102,102,_ZNSt3__19allocatorIcEC2B7v160006Ev
FN:81,81,_ZNSt3__116__non_trivial_ifILb1ENS_9allocatorIcEEEC2B7v160006Ev
FNDA:105,_ZNSt3__19allocatorIcEC2B7v160006Ev
FNDA:105,_ZNSt3__116__non_trivial_ifILb1ENS_9allocatorIcEEEC2B7v160006Ev
FNF:2
FNH:2
DA:81,105
DA:102,105
LF:2
LH:2
end_of_record
TN:
SF:/Library/Developer/CommandLineTools/SDKs/MacOSX.sdk/usr/include/c++/v1/__memory/compressed_pair.h
FN:119,119,_ZNSt3__117__compressed_pairINS_12basic_stringIcNS_11char_traitsIcEENS_9allocatorIcEEE5__repES5_EC1B7v160006INS_18__default_init_tagESA_EEOT_OT0_
FN:119,119,_ZNSt3__117__compressed_pairINS_12basic_stringIcNS_11char_traitsIcEENS_9allocatorIcEEE5__repES5_EC2B7v160006INS_18__default_init_tagESA_EEOT_OT0_
FN:131,132,_ZNSt3__117__compressed_pairINS_12basic_stringIcNS_11char_traitsIcEENS_9allocatorIcEEE5__repES5_E5firstB7v160006Ev
FN:131,132,_ZNSt3__117__compressed_pairIPNS_12basic_stringIcNS_11char_traitsIcEENS_9allocatorIcEEEENS_14default_deleteIS6_EEE5firstB7v160006Ev
FN:131,132,_ZNSt3__117__compressed_pairIPNS_18basic_stringstreamIcNS_11char_traitsIcEENS_9allocatorIcEEEENS_14default_deleteIS6_EEE5firstB7v160006Ev
FN:136,137,_ZNKSt3__117__compressed_pairINS_12basic_stringIcNS_11char_traitsIcEENS_9allocatorIcEEE5__repES5_E5firstB7v160006Ev
FN:136,137,_ZNKSt3__117__compressed_pairIPNS_12basic_stringIcNS_11char_traitsIcEENS_9allocatorIcEEEENS_14default_deleteIS6_EEE5firstB7v160006Ev
FN:141,142,_ZNSt3__117__compressed_pairIPNS_12basic_stringIcNS_11char_traitsIcEENS_9allocatorIcEEEENS_14default_deleteIS6_EEE6secondB7v160006Ev
FN:141,142,_ZNSt3__117__compressed_pairIPNS_18basic_stringstreamIcNS_11char_traitsIcEENS_9allocatorIcEEEENS_14default_deleteIS6_EEE6secondB7v160006Ev
FN:46,46,_ZNSt3__122__compressed_pair_elemINS_12basic_stringIcNS_11char_traitsIcEENS_9allocatorIcEEE5__repELi0ELb0EEC2B7v160006ENS_18__default_init_tagE
FN:60,60,_ZNSt3__122__compressed_pair_elemINS_12basic_stringIcNS_11char_traitsIcEENS_9allocatorIcEEE5__repELi0ELb0EE5__getB7v160006Ev
FN:60,60,_ZNSt3__122__compressed_pair_elemIPNS_12basic_stringIcNS_11char_traitsIcEENS_9allocatorIcEEEELi0ELb0EE5__getB7v160006Ev
FN:60,60,_ZNSt3__122__compressed_pair_elemIPNS_18basic_stringstreamIcNS_11char_traitsIcEENS_9allocatorIcEEEELi0ELb0EE5__getB7v160006Ev
FN:61,61,_ZNKSt3__122__compressed_pair_elemINS_12basic_stringIcNS_11char_traitsIcEENS_9allocatorIcEEE5__repELi0ELb0EE5__getB7v160006Ev
FN:61,61,_ZNKSt3__122__compressed_pair_elemIPNS_12basic_stringIcNS_11char_traitsIcEENS_9allocatorIcEEEELi0ELb0EE5__getB7v160006Ev
FN:75,75,_ZNSt3__122__compressed_pair_elemINS_9allocatorIcEELi1ELb1EEC2B7v160006ENS_18__default_init_tagE
FN:89,89,_ZNSt3__122__compressed_pair_elemINS_14default_deleteINS_12basic_stringIcNS_11char_traitsIcEENS_9allocatorIcEEEEEELi1ELb1EE5__getB7v160006Ev
FN:89,89,_ZNSt3__122__compressed_pair_elemINS_14default_deleteINS_18basic_stringstreamIcNS_11char_traitsIcEENS_9allocatorIcEEEEEELi1ELb1EE5__getB7v160006Ev
FNDA:105,_ZNSt3__117__compressed_pairINS_12basic_stringIcNS_11char_traitsIcEENS_9allocatorIcEEE5__repES5_EC1B7v160006INS_18__default_init_tagESA_EEOT_OT0_
FNDA:105,_ZNSt3__117__compressed_pairINS_12basic_stringIcNS_11char_traitsIcEENS_9allocatorIcEEE5__repES5_EC2B7v160006INS_18__default_init_tagESA_EEOT_OT0_
FNDA:57,_ZNSt3__117__compressed_pairINS_12basic_stringIcNS_11char_traitsIcEENS_9allocatorIcEEE5__repES5_E5firstB7v160006Ev
FNDA:40,_ZNSt3__117__compressed_pairIPNS_12basic_stringIcNS_11char_traitsIcEENS_9allocatorIcEEEENS_14default_deleteIS6_EEE5firstB7v160006Ev
FNDA:0,_ZNSt3__117__compressed_pairIPNS_18basic_stringstreamIcNS_11char_traitsIcEENS_9allocatorIcEEEENS_14default_deleteIS6_EEE5firstB7v160006Ev
FNDA:0,_ZNKSt3__117__compressed_pairINS_12basic_stringIcNS_11char_traitsIcEENS_9allocatorIcEEE5__repES5_E5firstB7v160006Ev
FNDA:0,_ZNKSt3__117__compressed_pairIPNS_12basic_stringIcNS_11char_traitsIcEENS_9allocatorIcEEEENS_14default_deleteIS6_EEE5firstB7v160006Ev
FNDA:0,_ZNSt3__117__compressed_pairIPNS_12basic_stringIcNS_11char_traitsIcEENS_9allocatorIcEEEENS_14default_deleteIS6_EEE6secondB7v160006Ev
FNDA:0,_ZNSt3__117__compressed_pairIPNS_18basic_stringstreamIcNS_11char_traitsIcEENS_9allocatorIcEEEENS_14default_deleteIS6_EEE6secondB7v160006Ev
FNDA:105,_ZNSt3__122__compressed_pair_elemINS_12basic_stringIcNS_11char_traitsIcEENS_9allocatorIcEEE5__repELi0ELb0EEC2B7v160006ENS_18__default_init_tagE
FNDA:57,_ZNSt3__122__compressed_pair_elemINS_12basic_stringIcNS_11char_traitsIcEENS_9allocatorIcEEE5__repELi0ELb0EE5__getB7v160006Ev
FNDA:40,_ZNSt3__122__compressed_pair_elemIPNS_12basic_stringIcNS_11char_traitsIcEENS_9allocatorIcEEEELi0ELb0EE5__getB7v160006Ev
FNDA:0,_ZNSt3__122__compressed_pair_elemIPNS_18basic_stringstreamIcNS_11char_traitsIcEENS_9allocatorIcEEEELi0ELb0EE5__getB7v160006Ev
FNDA:0,_ZNKSt3__122__compressed_pair_elemINS_12basic_stringIcNS_11char_traitsIcEENS_9allocatorIcEEE5__repELi0ELb0EE5__getB7v160006Ev
FNDA:0,_ZNKSt3__122__compressed_pair_elemIPNS_12basic_stringIcNS_11char_traitsIcEENS_9allocatorIcEEEELi0ELb0EE5__getB7v160006Ev
FNDA:105,_ZNSt3__122__compressed_pair_elemINS_9allocatorIcEELi1ELb1EEC2B7v160006ENS_18__default_init_tagE
FNDA:0,_ZNSt3__122__compressed_pair_elemINS_14default_deleteINS_12basic_stringIcNS_11char_traitsIcEENS_9allocatorIcEEEEEELi1ELb1EE5__getB7v160006Ev
FNDA:0,_ZNSt3__122__compressed_pair_elemINS_14default_deleteINS_18basic_stringstreamIcNS_11char_traitsIcEENS_9allocatorIcEEEEEELi1ELb1EE5__getB7v160006Ev
FNF:18
FNH:8
DA:46,105
DA:60,97
DA:61,0
DA:75,105
DA:89,0
DA:119,210
DA:131,97
DA:132,97
DA:136,0
DA:137,0
DA:141,0
DA:142,0
LF:12
LH:6
end_of_record
TN:
SF:/Library/Developer/CommandLineTools/SDKs/MacOSX.sdk/usr/include/c++/v1/__memory/pointer_traits.h
FN:153,154,_ZNSt3__114pointer_traitsIPKcE10pointer_toB7v160006ERS1_
FN:153,154,_ZNSt3__114pointer_traitsIPcE10pointer_toB7v160006ERc
FN:172,174,_ZNSt3__112__to_addressB7v160006IKcEEPT_S3_
FN:172,174,_ZNSt3__112__to_addressB7v160006IcEEPT_S2_
FNDA:0,_ZNSt3__114pointer_traitsIPKcE10pointer_toB7v160006ERS1_
FNDA:0,_ZNSt3__114pointer_traitsIPcE10pointer_toB7v160006ERc
FNDA:0,_ZNSt3__112__to_addressB7v160006IKcEEPT_S3_
FNDA:0,_ZNSt3__112__to_addressB7v160006IcEEPT_S2_
FNF:4
FNH:0
DA:153,0
DA:154,0
DA:172,0
DA:174,0
LF:4
LH:0
end_of_record
TN:
SF:/Library/Developer/CommandLineTools/SDKs/MacOSX.sdk/usr/include/c++/v1/__memory/unique_ptr.h
FN:263,263,_ZNSt3__110unique_ptrINS_12basic_stringIcNS_11char_traitsIcEENS_9allocatorIcEEEENS_14default_deleteIS6_EEED1B7v160006Ev
FN:263,263,_ZNSt3__110unique_ptrINS_12basic_stringIcNS_11char_traitsIcEENS_9allocatorIcEEEENS_14default_deleteIS6_EEED2B7v160006Ev
FN:263,263,_ZNSt3__110unique_ptrINS_18basic_stringstreamIcNS_11char_traitsIcEENS_9allocatorIcEEEENS_14default_deleteIS6_EEED1B7v160006Ev
FN:263,263,_ZNSt3__110unique_ptrINS_18basic_stringstreamIcNS_11char_traitsIcEENS_9allocatorIcEEEENS_14default_deleteIS6_EEED2B7v160006Ev
FN:273,274,_ZNKSt3__110unique_ptrINS_12basic_stringIcNS_11char_traitsIcEENS_9allocatorIcEEEENS_14default_deleteIS6_EEEptB7v160006Ev
FN:283,284,_ZNKSt3__110unique_ptrINS_12basic_stringIcNS_11char_traitsIcEENS_9allocatorIcEEEENS_14default_deleteIS6_EEEcvbB7v160006Ev
FN:293,298,_ZNSt3__110unique_ptrINS_12basic_stringIcNS_11char_traitsIcEENS_9allocatorIcEEEENS_14default_deleteIS6_EEE5resetB7v160006EPS6_
FN:293,298,_ZNSt3__110unique_ptrINS_18basic_stringstreamIcNS_11char_traitsIcEENS_9allocatorIcEEEENS_14default_deleteIS6_EEE5resetB7v160006EPS6_
FN:589,591,_ZNSt3__1neB7v160006INS_12basic_stringIcNS_11char_traitsIcEENS_9allocatorIcEEEENS_14default_deleteIS6_EEEEbRKNS_10unique_ptrIT_T0_EEDn
FN:62,66,_ZNKSt3__114default_deleteINS_12basic_stringIcNS_11char_traitsIcEENS_9allocatorIcEEEEEclB7v160006EPS6_
FN:62,66,_ZNKSt3__114default_deleteINS_18basic_stringstreamIcNS_11char_traitsIcEENS_9allocatorIcEEEEEclB7v160006EPS6_
FNDA:20,_ZNSt3__110unique_ptrINS_12basic_stringIcNS_11char_traitsIcEENS_9allocatorIcEEEENS_14default_deleteIS6_EEED1B7v160006Ev
FNDA:20,_ZNSt3__110unique_ptrINS_12basic_stringIcNS_11char_traitsIcEENS_9allocatorIcEEEENS_14default_deleteIS6_EEED2B7v160006Ev
FNDA:0,_ZNSt3__110unique_ptrINS_18basic_stringstreamIcNS_11char_traitsIcEENS_9allocatorIcEEEENS_14default_deleteIS6_EEED1B7v160006Ev
FNDA:0,_ZNSt3__110unique_ptrINS_18basic_stringstreamIcNS_11char_traitsIcEENS_9allocatorIcEEEENS_14default_deleteIS6_EEED2B7v160006Ev
FNDA:0,_ZNKSt3__110unique_ptrINS_12basic_stringIcNS_11char_traitsIcEENS_9allocatorIcEEEENS_14default_deleteIS6_EEEptB7v160006Ev
FNDA:0,_ZNKSt3__110unique_ptrINS_12basic_stringIcNS_11char_traitsIcEENS_9allocatorIcEEEENS_14default_deleteIS6_EEEcvbB7v160006Ev
FNDA:20,_ZNSt3__110unique_ptrINS_12basic_stringIcNS_11char_traitsIcEENS_9allocatorIcEEEENS_14default_deleteIS6_EEE5resetB7v160006EPS6_
FNDA:0,_ZNSt3__110unique_ptrINS_18basic_stringstreamIcNS_11char_traitsIcEENS_9allocatorIcEEEENS_14default_deleteIS6_EEE5resetB7v160006EPS6_
FNDA:0,_ZNSt3__1neB7v160006INS_12basic_stringIcNS_11char_traitsIcEENS_9allocatorIcEEEENS_14default_deleteIS6_EEEEbRKNS_10unique_ptrIT_T0_EEDn
FNDA:0,_ZNKSt3__114default_deleteINS_12basic_stringIcNS_11char_traitsIcEENS_9allocatorIcEEEEEclB7v160006EPS6_
FNDA:0,_ZNKSt3__114default_deleteINS_18basic_stringstreamIcNS_11char_traitsIcEENS_9allocatorIcEEEEEclB7v160006EPS6_
FNF:11
FNH:3
DA:62,0
DA:65,0
DA:66,0
DA:263,40
DA:273,0
DA:274,0
DA:283,0
DA:284,0
DA:293,20
DA:294,20
DA:295,20
DA:296,20
DA:297,0
DA:298,20
DA:589,0
DA:591,0
LF:16
LH:6
end_of_record
TN:
SF:/Library/Developer/CommandLineTools/SDKs/MacOSX.sdk/usr/include/c++/v1/__string/char_traits.h
FN:219,220,_ZNSt3__111char_traitsIcE6lengthEPKc
FN:255,256,_ZNSt3__111char_traitsIcE11eq_int_typeEii
FN:257,258,_ZNSt3__111char_traitsIcE3eofEv
FNDA:48,_ZNSt3__111char_traitsIcE6lengthEPKc
FNDA:457,_ZNSt3__111char_traitsIcE11eq_int_typeEii
FNDA:514,_ZNSt3__111char_traitsIcE3eofEv
FNF:3
FNH:3
DA:219,48
DA:220,48
DA:255,457
DA:256,457
DA:257,514
DA:258,514
LF:6
LH:6
end_of_record
TN:
SF:/Library/Developer/CommandLineTools/SDKs/MacOSX.sdk/usr/include/c++/v1/cstring
FN:103,_ZNSt3__118__constexpr_strlenB7v160006EPKc
FNDA:48,_ZNSt3__118__constexpr_strlenB7v160006EPKc
FNF:1
FNH:1
DA:103,48
DA:114,48
LF:2
LH:2
end_of_record
TN:
SF:/Library/Developer/CommandLineTools/SDKs/MacOSX.sdk/usr/include/c++/v1/iomanip
FN:209,_ZNSt3__18__iom_t5C1B7v160006Ei
FN:209,_ZNSt3__18__iom_t5C2B7v160006Ei
FN:225,_ZNSt3__1lsB7v160006IcNS_11char_traitsIcEEEERNS_13basic_ostreamIT_T0_EES7_RKNS_8__iom_t5E
FN:234,_ZNSt3__112setprecisionB7v160006Ei
FNDA:0,_ZNSt3__18__iom_t5C1B7v160006Ei
FNDA:0,_ZNSt3__18__iom_t5C2B7v160006Ei
FNDA:0,_ZNSt3__1lsB7v160006IcNS_11char_traitsIcEEEERNS_13basic_ostreamIT_T0_EES7_RKNS_8__iom_t5E
FNDA:0,_ZNSt3__112setprecisionB7v160006Ei
FNF:4
FNH:0
DA:209,0
DA:225,0
DA:227,0
DA:228,0
DA:234,0
DA:236,0
LF:6
LH:0
end_of_record
TN:
SF:/Library/Developer/CommandLineTools/SDKs/MacOSX.sdk/usr/include/c++/v1/ios
FN:355,_ZNSt3__18ios_baseC2B7v160006Ev
FN:359,_ZNKSt3__18ios_base5rdbufB7v160006Ev
FN:470,_ZNKSt3__18ios_base5flagsB7v160006Ev
FN:514,_ZNKSt3__18ios_base9precisionB7v160006Ev
FN:521,_ZNSt3__18ios_base9precisionB7v160006El
FN:532,_ZNKSt3__18ios_base5widthB7v160006Ev
FN:539,_ZNSt3__18ios_base5widthB7v160006El
FN:557,_ZNSt3__18ios_base8setstateB7v160006Ej
FN:634,_ZNSt3__19basic_iosIcNS_11char_traitsIcEEE8setstateB7v160006Ej
FN:676,_ZNSt3__19basic_iosIcNS_11char_traitsIcEEEC2B7v160006Ev
FN:709,_ZNSt3__19basic_iosIcNS_11char_traitsIcEEE4initB7v160006EPNS_15basic_streambufIcS2_EE
FN:737,_ZNKSt3__19basic_iosIcNS_11char_traitsIcEEE5rdbufB7v160006Ev
FN:775,_ZNKSt3__19basic_iosIcNS_11char_traitsIcEEE5widenB7v160006Ec
FN:783,_ZNKSt3__19basic_iosIcNS_11char_traitsIcEEE4fillB7v160006Ev
FNDA:57,_ZNSt3__18ios_baseC2B7v160006Ev
FNDA:457,_ZNKSt3__18ios_base5rdbufB7v160006Ev
FNDA:457,_ZNKSt3__18ios_base5flagsB7v160006Ev
FNDA:0,_ZNKSt3__18ios_base9precisionB7v160006Ev
FNDA:0,_ZNSt3__18ios_base9precisionB7v160006El
FNDA:457,_ZNKSt3__18ios_base5widthB7v160006Ev
FNDA:457,_ZNSt3__18ios_base5widthB7v160006El
FNDA:0,_ZNSt3__18ios_base8setstateB7v160006Ej
FNDA:0,_ZNSt3__19basic_iosIcNS_11char_traitsIcEEE8setstateB7v160006Ej
FNDA:57,_ZNSt3__19basic_iosIcNS_11char_traitsIcEEEC2B7v160006Ev
FNDA:57,_ZNSt3__19basic_iosIcNS_11char_traitsIcEEE4initB7v160006EPNS_15basic_streambufIcS2_EE
FNDA:457,_ZNKSt3__19basic_iosIcNS_11char_traitsIcEEE5rdbufB7v160006Ev
FNDA:43,_ZNKSt3__19basic_iosIcNS_11char_traitsIcEEE5widenB7v160006Ec
FNDA:457,_ZNKSt3__19basic_iosIcNS_11char_traitsIcEEE4fillB7v160006Ev
FNF:14
FNH:10
DA:355,57
DA:356,57
DA:359,457
DA:470,457
DA:472,457
DA:514,0
DA:516,0
DA:521,0
DA:523,0
DA:524,0
DA:525,0
DA:532,457
DA:534,457
DA:539,457
DA:541,457
DA:542,457
DA:543,457
DA:557,0
DA:559,0
DA:560,0
DA:634,0
DA:676,57
DA:677,57
DA:709,57
DA:711,57
DA:712,57
DA:713,57
DA:714,57
DA:737,457
DA:739,457
DA:775,43
DA:777,43
DA:778,0
DA:783,457
DA:785,457
DA:786,43
DA:787,457
LF:37
LH:26
end_of_record
TN:
SF:/Library/Developer/CommandLineTools/SDKs/MacOSX.sdk/usr/include/c++/v1/istream
FN:1407,_ZNSt3__114basic_iostreamIcNS_11char_traitsIcEEEC2B7v160006EPNS_15basic_streambufIcS2_EE
FN:193,_ZNSt3__113basic_istreamIcNS_11char_traitsIcEEEC2B7v160006EPNS_15basic_streambufIcS2_EE
FNDA:57,_ZNSt3__114basic_iostreamIcNS_11char_traitsIcEEEC2B7v160006EPNS_15basic_streambufIcS2_EE
FNDA:57,_ZNSt3__113basic_istreamIcNS_11char_traitsIcEEEC2B7v160006EPNS_15basic_streambufIcS2_EE
FNF:2
FNH:2
DA:193,114
DA:194,114
DA:1407,114
DA:1408,57
DA:1409,57
LF:5
LH:5
end_of_record
TN:
SF:/Library/Developer/CommandLineTools/SDKs/MacOSX.sdk/usr/include/c++/v1/locale
FN:1415,_ZNSt3__116__pad_and_outputB7v160006IcNS_11char_traitsIcEEEENS_19ostreambuf_iteratorIT_T0_EES6_PKS4_S8_S8_RNS_8ios_baseES4_
FNDA:457,_ZNSt3__116__pad_and_outputB7v160006IcNS_11char_traitsIcEEEENS_19ostreambuf_iteratorIT_T0_EES6_PKS4_S8_S8_RNS_8ios_baseES4_
FNF:1
FNH:1
DA:1415,457
DA:1419,457
DA:1420,0
DA:1421,457
DA:1422,457
DA:1423,457
DA:1424,0
DA:1426,457
DA:1427,457
DA:1428,457
DA:1430,0
DA:1432,0
DA:1433,0
DA:1435,0
DA:1436,457
DA:1438,0
DA:1439,0
DA:1441,0
DA:1442,0
DA:1444,0
DA:1445,457
DA:1446,457
DA:1448,457
DA:1450,0
DA:1451,0
DA:1453,457
DA:1454,457
DA:1455,457
DA:1456,457
LF:29
LH:16
end_of_record
TN:
SF:/Library/Developer/CommandLineTools/SDKs/MacOSX.sdk/usr/include/c++/v1/math.h
FN:882,887,_Z3powB7v160006IiiENSt3__19enable_ifIXaasr3std13is_arithmeticIT_EE5valuesr3std13is_arithmeticIT0_EE5valueENS0_9__promoteIS2_S3_vEEE4type4typeES2_S3_
FNDA:0,_Z3powB7v160006IiiENSt3__19enable_ifIXaasr3std13is_arithmeticIT_EE5valuesr3std13is_arithmeticIT0_EE5valueENS0_9__promoteIS2_S3_vEEE4type4typeES2_S3_
FNF:1
FNH:0
DA:882,0
DA:887,0
LF:2
LH:0
end_of_record
TN:
SF:/Library/Developer/CommandLineTools/SDKs/MacOSX.sdk/usr/include/c++/v1/ostream
FN:279,_ZNSt3__113basic_ostreamIcNS_11char_traitsIcEEEC2B7v160006Ev
FN:295,_ZNKSt3__113basic_ostreamIcNS_11char_traitsIcEEE6sentrycvbB7v160006Ev
FN:751,_ZNSt3__124__put_character_sequenceB7v160006IcNS_11char_traitsIcEEEERNS_13basic_ostreamIT_T0_EES7_PKS4_m
FN:899,_ZNSt3__1lsB7v160006INS_11char_traitsIcEEEERNS_13basic_ostreamIcT_EES6_PKc
FNDA:57,_ZNSt3__113basic_ostreamIcNS_11char_traitsIcEEEC2B7v160006Ev
FNDA:457,_ZNKSt3__113basic_ostreamIcNS_11char_traitsIcEEE6sentrycvbB7v160006Ev
FNDA:457,_ZNSt3__124__put_character_sequenceB7v160006IcNS_11char_traitsIcEEEERNS_13basic_ostreamIT_T0_EES7_PKS4_m
FNDA:0,_ZNSt3__1lsB7v160006INS_11char_traitsIcEEEERNS_13basic_ostreamIcT_EES6_PKc
FNF:4
FNH:3
DA:279,57
DA:295,457
DA:751,457
DA:758,457
DA:759,457
DA:762,914
DA:763,457
DA:764,457
DA:765,0
DA:766,457
DA:767,457
DA:768,457
DA:769,914
DA:770,0
DA:771,457
DA:773,457
DA:776,0
DA:777,0
DA:779,457
DA:780,0
DA:899,0
DA:901,0
LF:22
LH:15
end_of_record
TN:
SF:/Library/Developer/CommandLineTools/SDKs/MacOSX.sdk/usr/include/c++/v1/sstream
FN:235,_ZNSt3__115basic_stringbufIcNS_11char_traitsIcEENS_9allocatorIcEEEC1B7v160006Ej
FN:235,_ZNSt3__115basic_stringbufIcNS_11char_traitsIcEENS_9allocatorIcEEEC2B7v160006Ej
FN:810,_ZNSt3__118basic_stringstreamIcNS_11char_traitsIcEENS_9allocatorIcEEEC1B7v160006Ev
FN:850,_ZNKSt3__118basic_stringstreamIcNS_11char_traitsIcEENS_9allocatorIcEEE3strB7v160006Ev
FN:869,_ZNSt3__115basic_stringbufIcNS_11char_traitsIcEENS_9allocatorIcEEED1Ev
FN:869,_ZNSt3__115basic_stringbufIcNS_11char_traitsIcEENS_9allocatorIcEEED2Ev
FN:870,_ZNSt3__118basic_stringstreamIcNS_11char_traitsIcEENS_9allocatorIcEEED1Ev
FN:870,_ZNSt3__118basic_stringstreamIcNS_11char_traitsIcEENS_9allocatorIcEEED2Ev
FNDA:57,_ZNSt3__115basic_stringbufIcNS_11char_traitsIcEENS_9allocatorIcEEEC1B7v160006Ej
FNDA:57,_ZNSt3__115basic_stringbufIcNS_11char_traitsIcEENS_9allocatorIcEEEC2B7v160006Ej
FNDA:57,_ZNSt3__118basic_stringstreamIcNS_11char_traitsIcEENS_9allocatorIcEEEC1B7v160006Ev
FNDA:0,_ZNKSt3__118basic_stringstreamIcNS_11char_traitsIcEENS_9allocatorIcEEE3strB7v160006Ev
FNDA:0,_ZNSt3__115basic_stringbufIcNS_11char_traitsIcEENS_9allocatorIcEEED1Ev
FNDA:0,_ZNSt3__115basic_stringbufIcNS_11char_traitsIcEENS_9allocatorIcEEED2Ev
FNDA:0,_ZNSt3__118basic_stringstreamIcNS_11char_traitsIcEENS_9allocatorIcEEED1Ev
FNDA:0,_ZNSt3__118basic_stringstreamIcNS_11char_traitsIcEENS_9allocatorIcEEED2Ev
FNF:8
FNH:3
DA:235,171
DA:236,171
DA:810,114
DA:811,114
DA:850,0
DA:851,0
LF:6
LH:4
end_of_record
TN:
SF:/Library/Developer/CommandLineTools/SDKs/MacOSX.sdk/usr/include/c++/v1/stdexcept
FN:153,_ZNSt12length_errorC1B7v160006ERKNSt3__112basic_stringIcNS0_11char_traitsIcEENS0_9allocatorIcEEEE
FN:153,_ZNSt12length_errorC2B7v160006ERKNSt3__112basic_stringIcNS0_11char_traitsIcEENS0_9allocatorIcEEEE
FN:166,_ZNSt12out_of_rangeC1B7v160006EPKc
FN:166,_ZNSt12out_of_rangeC2B7v160006EPKc
FNDA:0,_ZNSt12length_errorC1B7v160006ERKNSt3__112basic_stringIcNS0_11char_traitsIcEENS0_9allocatorIcEEEE
FNDA:0,_ZNSt12length_errorC2B7v160006ERKNSt3__112basic_stringIcNS0_11char_traitsIcEENS0_9allocatorIcEEEE
FNDA:0,_ZNSt12out_of_rangeC1B7v160006EPKc
FNDA:0,_ZNSt12out_of_rangeC2B7v160006EPKc
FNF:4
FNH:0
DA:153,0
DA:166,0
LF:2
LH:0
end_of_record
TN:
SF:/Library/Developer/CommandLineTools/SDKs/MacOSX.sdk/usr/include/c++/v1/streambuf
FN:231,_ZNSt3__115basic_streambufIcNS_11char_traitsIcEEE5sputnB7v160006EPKcl
FNDA:457,_ZNSt3__115basic_streambufIcNS_11char_traitsIcEEE5sputnB7v160006EPKcl
FNF:1
FNH:1
DA:231,457
DA:232,457
LF:2
LH:2
end_of_record
TN:
SF:/Library/Developer/CommandLineTools/SDKs/MacOSX.sdk/usr/include/c++/v1/string
FN:1460,_ZNKSt3__112basic_stringIcNS_11char_traitsIcEENS_9allocatorIcEEE5c_strB7v160006Ev
FN:1462,_ZNKSt3__112basic_stringIcNS_11char_traitsIcEENS_9allocatorIcEEE4dataB7v160006Ev
FN:1465,_ZNSt3__112basic_stringIcNS_11char_traitsIcEENS_9allocatorIcEEE4dataB7v160006Ev
FN:1679,_ZNKSt3__112basic_stringIcNS_11char_traitsIcEENS_9allocatorIcEEE9__is_longB7v160006Ev
FN:1697,_ZNSt3__112basic_stringIcNS_11char_traitsIcEENS_9allocatorIcEEE14__default_initB7v160006Ev
FN:1787,_ZNSt3__112basic_stringIcNS_11char_traitsIcEENS_9allocatorIcEEE18__get_long_pointerB7v160006Ev
FN:1790,_ZNKSt3__112basic_stringIcNS_11char_traitsIcEENS_9allocatorIcEEE18__get_long_pointerB7v160006Ev
FN:1793,_ZNSt3__112basic_stringIcNS_11char_traitsIcEENS_9allocatorIcEEE19__get_short_pointerB7v160006Ev
FN:1796,_ZNKSt3__112basic_stringIcNS_11char_traitsIcEENS_9allocatorIcEEE19__get_short_pointerB7v160006Ev
FN:1799,_ZNSt3__112basic_stringIcNS_11char_traitsIcEENS_9allocatorIcEEE13__get_pointerB7v160006Ev
FN:1802,_ZNKSt3__112basic_stringIcNS_11char_traitsIcEENS_9allocatorIcEEE13__get_pointerB7v160006Ev
FN:827,_ZNSt3__112basic_stringIcNS_11char_traitsIcEENS_9allocatorIcEEEC1B7v160006Ev
FN:827,_ZNSt3__112basic_stringIcNS_11char_traitsIcEENS_9allocatorIcEEEC2B7v160006Ev
FN:879,_ZNSt3__112basic_stringIcNS_11char_traitsIcEENS_9allocatorIcEEEC1B7v160006IDnEEPKc
FN:879,_ZNSt3__112basic_stringIcNS_11char_traitsIcEENS_9allocatorIcEEEC2B7v160006IDnEEPKc
FN:908,_ZNSt3__112basic_stringIcNS_11char_traitsIcEENS_9allocatorIcEEEC1B7v160006Emc
FN:908,_ZNSt3__112basic_stringIcNS_11char_traitsIcEENS_9allocatorIcEEEC2B7v160006Emc
FNDA:0,_ZNKSt3__112basic_stringIcNS_11char_traitsIcEENS_9allocatorIcEEE5c_strB7v160006Ev
FNDA:0,_ZNKSt3__112basic_stringIcNS_11char_traitsIcEENS_9allocatorIcEEE4dataB7v160006Ev
FNDA:0,_ZNSt3__112basic_stringIcNS_11char_traitsIcEENS_9allocatorIcEEE4dataB7v160006Ev
FNDA:0,_ZNKSt3__112basic_stringIcNS_11char_traitsIcEENS_9allocatorIcEEE9__is_longB7v160006Ev
FNDA:57,_ZNSt3__112basic_stringIcNS_11char_traitsIcEENS_9allocatorIcEEE14__default_initB7v160006Ev
FNDA:0,_ZNSt3__112basic_stringIcNS_11char_traitsIcEENS_9allocatorIcEEE18__get_long_pointerB7v160006Ev
FNDA:0,_ZNKSt3__112basic_stringIcNS_11char_traitsIcEENS_9allocatorIcEEE18__get_long_pointerB7v160006Ev
FNDA:0,_ZNSt3__112basic_stringIcNS_11char_traitsIcEENS_9allocatorIcEEE19__get_short_pointerB7v160006Ev
FNDA:0,_ZNKSt3__112basic_stringIcNS_11char_traitsIcEENS_9allocatorIcEEE19__get_short_pointerB7v160006Ev
FNDA:0,_ZNSt3__112basic_stringIcNS_11char_traitsIcEENS_9allocatorIcEEE13__get_pointerB7v160006Ev
FNDA:0,_ZNKSt3__112basic_stringIcNS_11char_traitsIcEENS_9allocatorIcEEE13__get_pointerB7v160006Ev
FNDA:57,_ZNSt3__112basic_stringIcNS_11char_traitsIcEENS_9allocatorIcEEEC1B7v160006Ev
FNDA:57,_ZNSt3__112basic_stringIcNS_11char_traitsIcEENS_9allocatorIcEEEC2B7v160006Ev
FNDA:9,_ZNSt3__112basic_stringIcNS_11char_traitsIcEENS_9allocatorIcEEEC1B7v160006IDnEEPKc
FNDA:48,_ZNSt3__112basic_stringIcNS_11char_traitsIcEENS_9allocatorIcEEEC2B7v160006IDnEEPKc
FNDA:0,_ZNSt3__112basic_stringIcNS_11char_traitsIcEENS_9allocatorIcEEEC1B7v160006Emc
FNDA:0,_ZNSt3__112basic_stringIcNS_11char_traitsIcEENS_9allocatorIcEEEC2B7v160006Emc
FNF:17
FNH:5
DA:827,114
DA:829,114
DA:830,57
DA:831,57
DA:832,114
DA:879,57
DA:880,57
DA:881,48
DA:882,48
DA:883,48
DA:884,57
DA:908,0
DA:909,0
DA:910,0
DA:911,0
DA:912,0
DA:1460,0
DA:1462,0
DA:1465,0
DA:1679,0
DA:1682,0
DA:1697,57
DA:1698,57
DA:1707,57
DA:1787,0
DA:1788,0
DA:1790,0
DA:1791,0
DA:1793,0
DA:1794,0
DA:1796,0
DA:1797,0
DA:1799,0
DA:1800,0
DA:1802,0
DA:1803,0
LF:36
LH:14
end_of_record
TN:
SF:/Users/hester/CLionProjects/s21_matrix+/matrix_tests/test.cpp
FN:0,__cxx_global_var_init
FN:0,__cxx_global_var_init.1
FN:0,__cxx_global_var_init.10
FN:0,__cxx_global_var_init.14
FN:0,__cxx_global_var_init.20
FN:0,__cxx_global_var_init.24
FN:0,__cxx_global_var_init.3
FN:10,_ZN43S21MatrixTest_ParameterizedConstructor_Test8TestBodyEv
FN:10,_ZN43S21MatrixTest_ParameterizedConstructor_TestC1Ev
FN:10,_ZN43S21MatrixTest_ParameterizedConstructor_TestC2Ev
FN:10,_ZN43S21MatrixTest_ParameterizedConstructor_TestD0Ev
FN:10,_ZN43S21MatrixTest_ParameterizedConstructor_TestD1Ev
FN:10,_ZN43S21MatrixTest_ParameterizedConstructor_TestD2Ev
FN:21,_ZN34S21MatrixTest_CopyConstructor_Test8TestBodyEv
FN:21,_ZN34S21MatrixTest_CopyConstructor_TestC1Ev
FN:21,_ZN34S21MatrixTest_CopyConstructor_TestC2Ev
FN:21,_ZN34S21MatrixTest_CopyConstructor_TestD0Ev
FN:21,_ZN34S21MatrixTest_CopyConstructor_TestD1Ev
FN:21,_ZN34S21MatrixTest_CopyConstructor_TestD2Ev
FN:30,_ZN35S21MatrixTest_SetValueGetValue_Test8TestBodyEv
FN:30,_ZN35S21MatrixTest_SetValueGetValue_TestC1Ev
FN:30,_ZN35S21MatrixTest_SetValueGetValue_TestC2Ev
FN:30,_ZN35S21MatrixTest_SetValueGetValue_TestD0Ev
FN:30,_ZN35S21MatrixTest_SetValueGetValue_TestD1Ev
FN:30,_ZN35S21MatrixTest_SetValueGetValue_TestD2Ev
FN:36,_ZN28S21MatrixTest_SumMatrix_Test8TestBodyEv
FN:36,_ZN28S21MatrixTest_SumMatrix_TestC1Ev
FN:36,_ZN28S21MatrixTest_SumMatrix_TestC2Ev
FN:36,_ZN28S21MatrixTest_SumMatrix_TestD0Ev
FN:36,_ZN28S21MatrixTest_SumMatrix_TestD1Ev
FN:36,_ZN28S21MatrixTest_SumMatrix_TestD2Ev
FN:4,_ZN37S21MatrixTest_DefaultConstructor_Test8TestBodyEv
FN:4,_ZN37S21MatrixTest_DefaultConstructor_TestC1Ev
FN:4,_ZN37S21MatrixTest_DefaultConstructor_TestC2Ev
FN:4,_ZN37S21MatrixTest_DefaultConstructor_TestD0Ev
FN:4,_ZN37S21MatrixTest_DefaultConstructor_TestD1Ev
FN:4,_ZN37S21MatrixTest_DefaultConstructor_TestD2Ev
FN:57,main
FNDA:1,__cxx_global_var_init
FNDA:1,__cxx_global_var_init.1
FNDA:1,__cxx_global_var_init.10
FNDA:1,__cxx_global_var_init.14
FNDA:1,__cxx_global_var_init.20
FNDA:1,__cxx_global_var_init.24
FNDA:1,__cxx_global_var_init.3
FNDA:1,_ZN43S21MatrixTest_ParameterizedConstructor_Test8TestBodyEv
FNDA:1,_ZN43S21MatrixTest_ParameterizedConstructor_TestC1Ev
FNDA:1,_ZN43S21MatrixTest_ParameterizedConstructor_TestC2Ev
FNDA:1,_ZN43S21MatrixTest_ParameterizedConstructor_TestD0Ev
FNDA:1,_ZN43S21MatrixTest_ParameterizedConstructor_TestD1Ev
FNDA:1,_ZN43S21MatrixTest_ParameterizedConstructor_TestD2Ev
FNDA:1,_ZN34S21MatrixTest_CopyConstructor_Test8TestBodyEv
FNDA:1,_ZN34S21MatrixTest_CopyConstructor_TestC1Ev
FNDA:1,_ZN34S21MatrixTest_CopyConstructor_TestC2Ev
FNDA:1,_ZN34S21MatrixTest_CopyConstructor_TestD0Ev
FNDA:1,_ZN34S21MatrixTest_CopyConstructor_TestD1Ev
FNDA:1,_ZN34S21MatrixTest_CopyConstructor_TestD2Ev
FNDA:1,_ZN35S21MatrixTest_SetValueGetValue_Test8TestBodyEv
FNDA:1,_ZN35S21MatrixTest_SetValueGetValue_TestC1Ev
FNDA:1,_ZN35S21MatrixTest_SetValueGetValue_TestC2Ev
FNDA:1,_ZN35S21MatrixTest_SetValueGetValue_TestD0Ev
FNDA:1,_ZN35S21MatrixTest_SetValueGetValue_TestD1Ev
FNDA:1,_ZN35S21MatrixTest_SetValueGetValue_TestD2Ev
FNDA:1,_ZN28S21MatrixTest_SumMatrix_Test8TestBodyEv
FNDA:1,_ZN28S21MatrixTest_SumMatrix_TestC1Ev
FNDA:1,_ZN28S21MatrixTest_SumMatrix_TestC2Ev
FNDA:1,_ZN28S21MatrixTest_SumMatrix_TestD0Ev
FNDA:1,_ZN28S21MatrixTest_SumMatrix_TestD1Ev
FNDA:1,_ZN28S21MatrixTest_SumMatrix_TestD2Ev
FNDA:1,_ZN37S21MatrixTest_DefaultConstructor_Test8TestBodyEv
FNDA:1,_ZN37S21MatrixTest_DefaultConstructor_TestC1Ev
FNDA:1,_ZN37S21MatrixTest_DefaultConstructor_TestC2Ev
FNDA:1,_ZN37S21MatrixTest_DefaultConstructor_TestD0Ev
FNDA:1,_ZN37S21MatrixTest_DefaultConstructor_TestD1Ev
FNDA:1,_ZN37S21MatrixTest_DefaultConstructor_TestD2Ev
FNDA:1,main
FNF:38
FNH:38
DA:4,7
DA:5,1
DA:6,1
DA:7,2
DA:8,2
DA:10,7
DA:11,1
DA:12,1
DA:13,1
DA:14,4
DA:15,12
DA:16,9
DA:17,9
DA:18,3
DA:19,1
DA:21,7
DA:22,1
DA:23,1
DA:24,1
DA:25,1
DA:26,1
DA:27,1
DA:28,1
DA:30,7
DA:31,1
DA:32,1
DA:33,1
DA:34,1
DA:36,7
DA:37,1
DA:38,1
DA:39,1
DA:40,1
DA:41,1
DA:43,1
DA:44,1
DA:45,1
DA:46,1
DA:47,1
DA:49,1
DA:51,1
DA:52,1
DA:53,1
DA:54,1
DA:55,1
DA:57,1
DA:58,1
DA:59,1
LF:48
LH:48
end_of_record
TN:
SF:/Users/hester/CLionProjects/s21_matrix+/s21_matrix_oop.cpp
FN:0,__cxx_global_var_init
FN:0,__cxx_global_var_init.1
FN:112,_ZN9S21Matrix8setValueEiid
FN:12,_ZN9S21MatrixD1Ev
FN:12,_ZN9S21MatrixD2Ev
FN:120,_ZNK9S21Matrix8getValueEii
FN:133,_ZN9S21Matrix9SumMatrixERKS_
FN:143,_ZN9S21Matrix9SubMatrixERKS_
FN:153,_ZN9S21Matrix9MulNumberEd
FN:16,_ZN9S21MatrixC1Eii
FN:16,_ZN9S21MatrixC2Eii
FN:163,_ZN9S21Matrix9MulMatrixERKS_
FN:179,_ZN9S21Matrix8EqMatrixERKS_
FN:194,_ZN9S21Matrix9TransposeEv
FN:209,_ZN9S21Matrix11DeterminantEv
FN:22,_ZN9S21MatrixC1ERKS_
FN:22,_ZN9S21MatrixC2ERKS_
FN:237,_ZN9S21Matrix15CalcComplementsEv
FN:257,_ZN9S21Matrix9get_minorERS_ii
FN:276,_ZN9S21Matrix13InverseMatrixEv
FN:297,_ZN9S21Matrix26Valid_rows_cols_for_matrixERKS_
FN:305,_ZN9S21Matrix15Valid_rows_colsEv
FN:316,_ZN9S21MatrixaSERKS_
FN:32,_ZN9S21MatrixC1EOS_
FN:32,_ZN9S21MatrixC2EOS_
FN:336,_ZN9S21MatrixpLERKS_
FN:342,_ZN9S21MatrixplERKS_
FN:348,_ZN9S21MatrixmLEd
FN:354,_ZN9S21MatrixmlEd
FN:362,_ZN9S21MatrixmLERKS_
FN:367,_ZN9S21MatrixmIERKS_
FN:372,_ZN9S21MatrixmiERKS_
FN:379,_ZN9S21MatrixeqERKS_
FN:384,_ZNK9S21MatrixclEii
FN:391,_ZN9S21MatrixclEii
FN:43,_ZN9S21Matrix12CreateMatrixEii
FN:59,_ZN9S21Matrix10FreeMatrixEv
FN:7,_ZN9S21MatrixC1Ev
FN:7,_ZN9S21MatrixC2Ev
FN:73,_ZN9S21Matrix7setRowsEi
FN:91,_ZN9S21Matrix6setColEi
FNDA:1,__cxx_global_var_init
FNDA:1,__cxx_global_var_init.1
FNDA:11,_ZN9S21Matrix8setValueEiid
FNDA:7,_ZN9S21MatrixD1Ev
FNDA:7,_ZN9S21MatrixD2Ev
FNDA:16,_ZNK9S21Matrix8getValueEii
FNDA:1,_ZN9S21Matrix9SumMatrixERKS_
FNDA:0,_ZN9S21Matrix9SubMatrixERKS_
FNDA:0,_ZN9S21Matrix9MulNumberEd
FNDA:6,_ZN9S21MatrixC1Eii
FNDA:6,_ZN9S21MatrixC2Eii
FNDA:0,_ZN9S21Matrix9MulMatrixERKS_
FNDA:0,_ZN9S21Matrix8EqMatrixERKS_
FNDA:0,_ZN9S21Matrix9TransposeEv
FNDA:0,_ZN9S21Matrix11DeterminantEv
FNDA:1,_ZN9S21MatrixC1ERKS_
FNDA:0,_ZN9S21MatrixC2ERKS_
FNDA:0,_ZN9S21Matrix15CalcComplementsEv
FNDA:0,_ZN9S21Matrix9get_minorERS_ii
FNDA:0,_ZN9S21Matrix13InverseMatrixEv
FNDA:1,_ZN9S21Matrix26Valid_rows_cols_for_matrixERKS_
FNDA:0,_ZN9S21Matrix15Valid_rows_colsEv
FNDA:0,_ZN9S21MatrixaSERKS_
FNDA:0,_ZN9S21MatrixC1EOS_
FNDA:0,_ZN9S21MatrixC2EOS_
FNDA:0,_ZN9S21MatrixpLERKS_
FNDA:0,_ZN9S21MatrixplERKS_
FNDA:0,_ZN9S21MatrixmLEd
FNDA:0,_ZN9S21MatrixmlEd
FNDA:0,_ZN9S21MatrixmLERKS_
FNDA:0,_ZN9S21MatrixmIERKS_
FNDA:0,_ZN9S21MatrixmiERKS_
FNDA:0,_ZN9S21MatrixeqERKS_
FNDA:4,_ZNK9S21MatrixclEii
FNDA:4,_ZN9S21MatrixclEii
FNDA:6,_ZN9S21Matrix12CreateMatrixEii
FNDA:7,_ZN9S21Matrix10FreeMatrixEv
FNDA:1,_ZN9S21MatrixC1Ev
FNDA:1,_ZN9S21MatrixC2Ev
FNDA:0,_ZN9S21Matrix7setRowsEi
FNDA:0,_ZN9S21Matrix6setColEi
FNF:41
FNH:17
DA:7,3
DA:8,2
DA:9,1
DA:10,1
DA:11,2
DA:12,14
DA:13,7
DA:14,14
DA:16,12
DA:17,6
DA:18,12
DA:22,1
DA:24,3
DA:25,6
DA:26,4
DA:27,4
DA:28,2
DA:30,1
DA:32,0
DA:33,0
DA:34,0
DA:35,0
DA:36,0
DA:43,6
DA:45,6
DA:46,0
DA:48,6
DA:49,6
DA:51,6
DA:53,19
DA:54,13
DA:55,13
DA:56,6
DA:59,7
DA:60,7
DA:61,19
DA:62,13
DA:63,13
DA:64,6
DA:65,6
DA:66,6
DA:67,7
DA:68,7
DA:69,7
DA:73,0
DA:74,0
DA:75,0
DA:78,0
DA:79,0
DA:80,0
DA:82,0
DA:83,0
DA:84,0
DA:85,0
DA:86,0
DA:87,0
DA:88,0
DA:89,0
DA:91,0
DA:92,0
DA:93,0
DA:95,0
DA:96,0
DA:97,0
DA:99,0
DA:100,0
DA:101,0
DA:102,0
DA:103,0
DA:104,0
DA:105,0
DA:106,0
DA:112,11
DA:113,11
DA:114,11
DA:115,11
DA:116,0
DA:118,11
DA:120,16
DA:121,16
DA:122,16
DA:124,0
DA:126,0
DA:133,1
DA:134,1
DA:135,3
DA:136,6
DA:138,4
DA:139,4
DA:140,2
DA:141,1
DA:143,0
DA:144,0
DA:145,0
DA:146,0
DA:147,0
DA:148,0
DA:149,0
DA:150,0
DA:153,0
DA:155,0
DA:156,0
DA:157,0
DA:158,0
DA:159,0
DA:160,0
DA:163,0
DA:164,0
DA:166,0
DA:167,0
DA:168,0
DA:169,0
DA:171,0
DA:172,0
DA:173,0
DA:174,0
DA:175,0
DA:176,0
DA:179,0
DA:180,0
DA:181,0
DA:182,0
DA:183,0
DA:184,0
DA:185,0
DA:187,0
DA:188,0
DA:189,0
DA:194,0
DA:196,0
DA:198,0
DA:199,0
DA:200,0
DA:201,0
DA:202,0
DA:204,0
DA:205,0
DA:209,0
DA:210,0
DA:212,0
DA:214,0
DA:215,0
DA:216,0
DA:217,0
DA:218,0
DA:219,0
DA:220,0
DA:221,0
DA:222,0
DA:223,0
DA:225,0
DA:226,0
DA:227,0
DA:228,0
DA:230,0
DA:231,0
DA:232,0
DA:234,0
DA:235,0
DA:237,0
DA:238,0
DA:239,0
DA:241,0
DA:242,0
DA:243,0
DA:244,0
DA:245,0
DA:246,0
DA:247,0
DA:248,0
DA:249,0
DA:250,0
DA:251,0
DA:254,0
DA:255,0
DA:257,0
DA:258,0
DA:259,0
DA:260,0
DA:261,0
DA:263,0
DA:264,0
DA:265,0
DA:266,0
DA:268,0
DA:269,0
DA:270,0
DA:271,0
DA:272,0
DA:273,0
DA:276,0
DA:277,0
DA:278,0
DA:279,0
DA:280,0
DA:281,0
DA:284,0
DA:285,0
DA:287,0
DA:289,0
DA:291,0
DA:297,1
DA:298,1
DA:299,0
DA:301,1
DA:305,0
DA:307,0
DA:308,0
DA:310,0
DA:316,0
DA:317,0
DA:318,0
DA:320,0
DA:322,0
DA:324,0
DA:325,0
DA:326,0
DA:327,0
DA:328,0
DA:330,0
DA:331,0
DA:336,0
DA:338,0
DA:339,0
DA:342,0
DA:343,0
DA:344,0
DA:345,0
DA:346,0
DA:348,0
DA:349,0
DA:350,0
DA:351,0
DA:354,0
DA:355,0
DA:356,0
DA:357,0
DA:358,0
DA:359,0
DA:362,0
DA:363,0
DA:364,0
DA:367,0
DA:368,0
DA:369,0
DA:372,0
DA:373,0
DA:374,0
DA:375,0
DA:377,0
DA:379,0
DA:380,0
DA:381,0
DA:384,4
DA:385,4
DA:386,0
DA:388,4
DA:389,0
DA:391,4
DA:392,4
DA:393,0
DA:395,4
DA:396,0
LF:263
LH:63
end_of_record
TN:
SF:/Users/hester/CLionProjects/s21_matrix+/s21_matrix_oop.h
FN:44,44,_ZN9S21Matrix7getColsEv
FN:47,47,_ZN9S21Matrix7getRowsEv
FNDA:2,_ZN9S21Matrix7getColsEv
FNDA:2,_ZN9S21Matrix7getRowsEv
FNF:2
FNH:2
DA:44,2
DA:47,2
LF:2
LH:2
end_of_record
TN:
SF:/opt/homebrew/include/gtest/gtest-assertion-result.h
FN:133,_ZN7testing15AssertionResultD1Ev
FN:133,_ZN7testing15AssertionResultD2Ev
FN:174,_ZNK7testing15AssertionResultcvbEv
FN:183,_ZNK7testing15AssertionResult7messageEv
FN:187,187,_ZNK7testing15AssertionResult15failure_messageEv
FNDA:20,_ZN7testing15AssertionResultD1Ev
FNDA:20,_ZN7testing15AssertionResultD2Ev
FNDA:20,_ZNK7testing15AssertionResultcvbEv
FNDA:0,_ZNK7testing15AssertionResult7messageEv
FNDA:0,_ZNK7testing15AssertionResult15failure_messageEv
FNF:5
FNH:3
DA:174,20
DA:183,0
DA:184,0
DA:187,0
LF:4
LH:1
end_of_record
TN:
SF:/opt/homebrew/include/gtest/gtest-message.h
FN:101,_ZN7testing7MessageD1Ev
FN:101,_ZN7testing7MessageD2Ev
FNDA:0,_ZN7testing7MessageD1Ev
FNDA:0,_ZN7testing7MessageD2Ev
FNF:2
FNH:0
LF:0
LH:0
end_of_record
TN:
SF:/opt/homebrew/include/gtest/gtest-printers.h
FN:1108,1113,_ZN7testing8internal14UniversalPrintIdEEvRKT_PNSt3__113basic_ostreamIcNS5_11char_traitsIcEEEE
FN:1108,1113,_ZN7testing8internal14UniversalPrintIiEEvRKT_PNSt3__113basic_ostreamIcNS5_11char_traitsIcEEEE
FN:1148,1152,_ZN7testing13PrintToStringIdEENSt3__112basic_stringIcNS1_11char_traitsIcEENS1_9allocatorIcEEEERKT_
FN:1148,1152,_ZN7testing13PrintToStringIiEENSt3__112basic_stringIcNS1_11char_traitsIcEENS1_9allocatorIcEEEERKT_
FN:221,226,_ZN7testing8internal52internal_stream_operator_without_lexical_name_lookup13StreamPrinter10PrintValueIivEEDTcvvlsdefp0_fp_ERKT_PNSt3__113basic_ostreamIcNS8_11char_traitsIcEEEE
FN:326,337,_ZN7testing8internal17PrintWithFallbackIiEEvRKT_PNSt3__113basic_ostreamIcNS5_11char_traitsIcEEEE
FN:357,358,_ZN7testing8internal19FormatForComparisonIddE6FormatERKd
FN:357,358,_ZN7testing8internal19FormatForComparisonIdiE6FormatERKd
FN:357,358,_ZN7testing8internal19FormatForComparisonIidE6FormatERKi
FN:357,358,_ZN7testing8internal19FormatForComparisonIiiE6FormatERKi
FN:437,439,_ZN7testing8internal33FormatForComparisonFailureMessageIddEENSt3__112basic_stringIcNS2_11char_traitsIcEENS2_9allocatorIcEEEERKT_RKT0_
FN:437,439,_ZN7testing8internal33FormatForComparisonFailureMessageIdiEENSt3__112basic_stringIcNS2_11char_traitsIcEENS2_9allocatorIcEEEERKT_RKT0_
FN:437,439,_ZN7testing8internal33FormatForComparisonFailureMessageIidEENSt3__112basic_stringIcNS2_11char_traitsIcEENS2_9allocatorIcEEEERKT_RKT0_
FN:437,439,_ZN7testing8internal33FormatForComparisonFailureMessageIiiEENSt3__112basic_stringIcNS2_11char_traitsIcEENS2_9allocatorIcEEEERKT_RKT0_
FN:464,466,_ZN7testing8internal7PrintToIiEEvRKT_PNSt3__113basic_ostreamIcNS5_11char_traitsIcEEEE
FN:529,577,_ZN7testing8internal21AppropriateResolutionIdEEiT_
FN:586,591,_ZN7testing8internal7PrintToEdPNSt3__113basic_ostreamIcNS1_11char_traitsIcEEEE
FN:799,809,_ZN7testing8internal16UniversalPrinterIdE5PrintERKdPNSt3__113basic_ostreamIcNS5_11char_traitsIcEEEE
FN:799,809,_ZN7testing8internal16UniversalPrinterIiE5PrintERKiPNSt3__113basic_ostreamIcNS5_11char_traitsIcEEEE
FN:989,991,_ZN7testing8internal21UniversalTersePrinterIdE5PrintERKdPNSt3__113basic_ostreamIcNS5_11char_traitsIcEEEE
FN:989,991,_ZN7testing8internal21UniversalTersePrinterIiE5PrintERKiPNSt3__113basic_ostreamIcNS5_11char_traitsIcEEEE
FNDA:0,_ZN7testing8internal14UniversalPrintIdEEvRKT_PNSt3__113basic_ostreamIcNS5_11char_traitsIcEEEE
FNDA:0,_ZN7testing8internal14UniversalPrintIiEEvRKT_PNSt3__113basic_ostreamIcNS5_11char_traitsIcEEEE
FNDA:0,_ZN7testing13PrintToStringIdEENSt3__112basic_stringIcNS1_11char_traitsIcEENS1_9allocatorIcEEEERKT_
FNDA:0,_ZN7testing13PrintToStringIiEENSt3__112basic_stringIcNS1_11char_traitsIcEENS1_9allocatorIcEEEERKT_
FNDA:0,_ZN7testing8internal52internal_stream_operator_without_lexical_name_lookup13StreamPrinter10PrintValueIivEEDTcvvlsdefp0_fp_ERKT_PNSt3__113basic_ostreamIcNS8_11char_traitsIcEEEE
FNDA:0,_ZN7testing8internal17PrintWithFallbackIiEEvRKT_PNSt3__113basic_ostreamIcNS5_11char_traitsIcEEEE
FNDA:0,_ZN7testing8internal19FormatForComparisonIddE6FormatERKd
FNDA:0,_ZN7testing8internal19FormatForComparisonIdiE6FormatERKd
FNDA:0,_ZN7testing8internal19FormatForComparisonIidE6FormatERKi
FNDA:0,_ZN7testing8internal19FormatForComparisonIiiE6FormatERKi
FNDA:0,_ZN7testing8internal33FormatForComparisonFailureMessageIddEENSt3__112basic_stringIcNS2_11char_traitsIcEENS2_9allocatorIcEEEERKT_RKT0_
FNDA:0,_ZN7testing8internal33FormatForComparisonFailureMessageIdiEENSt3__112basic_stringIcNS2_11char_traitsIcEENS2_9allocatorIcEEEERKT_RKT0_
FNDA:0,_ZN7testing8internal33FormatForComparisonFailureMessageIidEENSt3__112basic_stringIcNS2_11char_traitsIcEENS2_9allocatorIcEEEERKT_RKT0_
FNDA:0,_ZN7testing8internal33FormatForComparisonFailureMessageIiiEENSt3__112basic_stringIcNS2_11char_traitsIcEENS2_9allocatorIcEEEERKT_RKT0_
FNDA:0,_ZN7testing8internal7PrintToIiEEvRKT_PNSt3__113basic_ostreamIcNS5_11char_traitsIcEEEE
FNDA:0,_ZN7testing8internal21AppropriateResolutionIdEEiT_
FNDA:0,_ZN7testing8internal7PrintToEdPNSt3__113basic_ostreamIcNS1_11char_traitsIcEEEE
FNDA:0,_ZN7testing8internal16UniversalPrinterIdE5PrintERKdPNSt3__113basic_ostreamIcNS5_11char_traitsIcEEEE
FNDA:0,_ZN7testing8internal16UniversalPrinterIiE5PrintERKiPNSt3__113basic_ostreamIcNS5_11char_traitsIcEEEE
FNDA:0,_ZN7testing8internal21UniversalTersePrinterIdE5PrintERKdPNSt3__113basic_ostreamIcNS5_11char_traitsIcEEEE
FNDA:0,_ZN7testing8internal21UniversalTersePrinterIiE5PrintERKiPNSt3__113basic_ostreamIcNS5_11char_traitsIcEEEE
FNF:21
FNH:0
DA:221,0
DA:225,0
DA:226,0
DA:326,0
DA:336,0
DA:337,0
DA:357,0
DA:358,0
DA:437,0
DA:439,0
DA:464,0
DA:465,0
DA:466,0
DA:529,0
DA:530,0
DA:531,0
DA:533,0
DA:534,0
DA:535,0
DA:536,0
DA:537,0
DA:538,0
DA:539,0
DA:540,0
DA:541,0
DA:542,0
DA:543,0
DA:544,0
DA:545,0
DA:546,0
DA:547,0
DA:548,0
DA:549,0
DA:550,0
DA:551,0
DA:552,0
DA:553,0
DA:554,0
DA:555,0
DA:556,0
DA:557,0
DA:558,0
DA:559,0
DA:560,0
DA:561,0
DA:562,0
DA:563,0
DA:564,0
DA:565,0
DA:566,0
DA:567,0
DA:568,0
DA:569,0
DA:570,0
DA:571,0
DA:572,0
DA:573,0
DA:574,0
DA:575,0
DA:576,0
DA:577,0
DA:586,0
DA:587,0
DA:588,0
DA:589,0
DA:590,0
DA:591,0
DA:799,0
DA:808,0
DA:809,0
DA:989,0
DA:990,0
DA:991,0
DA:1108,0
DA:1112,0
DA:1113,0
DA:1148,0
DA:1149,0
DA:1150,0
DA:1151,0
DA:1152,0
LF:81
LH:0
end_of_record
TN:
SF:/opt/homebrew/include/gtest/gtest.h
FN:1359,1365,_ZN7testing8internal18CmpHelperEQFailureIddEENS_15AssertionResultEPKcS4_RKT_RKT0_
FN:1359,1365,_ZN7testing8internal18CmpHelperEQFailureIdiEENS_15AssertionResultEPKcS4_RKT_RKT0_
FN:1359,1365,_ZN7testing8internal18CmpHelperEQFailureIiiEENS_15AssertionResultEPKcS4_RKT_RKT0_
FN:1376,1384,_ZN7testing8internal11CmpHelperEQIddEENS_15AssertionResultEPKcS4_RKT_RKT0_
FN:1376,1384,_ZN7testing8internal11CmpHelperEQIdiEENS_15AssertionResultEPKcS4_RKT_RKT0_
FN:1376,1384,_ZN7testing8internal11CmpHelperEQIiiEENS_15AssertionResultEPKcS4_RKT_RKT0_
FN:1395,1398,_ZN7testing8internal8EqHelper7CompareIddLPv0EEENS_15AssertionResultEPKcS6_RKT_RKT0_
FN:1395,1398,_ZN7testing8internal8EqHelper7CompareIdiLPv0EEENS_15AssertionResultEPKcS6_RKT_RKT0_
FN:1395,1398,_ZN7testing8internal8EqHelper7CompareIiiLPv0EEENS_15AssertionResultEPKcS6_RKT_RKT0_
FN:1567,1587,_ZN7testing8internal24CmpHelperFloatingPointEQIdEENS_15AssertionResultEPKcS4_T_S5_
FN:2317,2317,_Z13RUN_ALL_TESTSv
FN:256,256,_ZN7testing4Test14SetUpTestSuiteEv
FN:264,264,_ZN7testing4Test17TearDownTestSuiteEv
FN:269,269,_ZN7testing4Test16TearDownTestCaseEv
FN:270,270,_ZN7testing4Test13SetUpTestCaseEv
FN:357,357,_ZN7testing4Test5SetupEv
FNDA:0,_ZN7testing8internal18CmpHelperEQFailureIddEENS_15AssertionResultEPKcS4_RKT_RKT0_
FNDA:0,_ZN7testing8internal18CmpHelperEQFailureIdiEENS_15AssertionResultEPKcS4_RKT_RKT0_
FNDA:0,_ZN7testing8internal18CmpHelperEQFailureIiiEENS_15AssertionResultEPKcS4_RKT_RKT0_
FNDA:2,_ZN7testing8internal11CmpHelperEQIddEENS_15AssertionResultEPKcS4_RKT_RKT0_
FNDA:13,_ZN7testing8internal11CmpHelperEQIdiEENS_15AssertionResultEPKcS4_RKT_RKT0_
FNDA:4,_ZN7testing8internal11CmpHelperEQIiiEENS_15AssertionResultEPKcS4_RKT_RKT0_
FNDA:2,_ZN7testing8internal8EqHelper7CompareIddLPv0EEENS_15AssertionResultEPKcS6_RKT_RKT0_
FNDA:13,_ZN7testing8internal8EqHelper7CompareIdiLPv0EEENS_15AssertionResultEPKcS6_RKT_RKT0_
FNDA:4,_ZN7testing8internal8EqHelper7CompareIiiLPv0EEENS_15AssertionResultEPKcS6_RKT_RKT0_
FNDA:1,_ZN7testing8internal24CmpHelperFloatingPointEQIdEENS_15AssertionResultEPKcS4_T_S5_
FNDA:1,_Z13RUN_ALL_TESTSv
FNDA:0,_ZN7testing4Test14SetUpTestSuiteEv
FNDA:0,_ZN7testing4Test17TearDownTestSuiteEv
FNDA:0,_ZN7testing4Test16TearDownTestCaseEv
FNDA:0,_ZN7testing4Test13SetUpTestCaseEv
FNDA:0,_ZN7testing4Test5SetupEv
FNF:16
FNH:8
DA:256,0
DA:264,0
DA:269,0
DA:270,0
DA:357,0
DA:1359,0
DA:1362,0
DA:1363,0
DA:1364,0
DA:1365,0
DA:1376,19
DA:1379,19
DA:1380,19
DA:1383,0
DA:1384,19
DA:1395,19
DA:1398,19
DA:1567,1
DA:1570,1
DA:1572,1
DA:1573,1
DA:1576,0
DA:1577,0
DA:1578,0
DA:1580,0
DA:1581,0
DA:1582,0
DA:1584,0
DA:1585,0
DA:1587,1
DA:2317,1
LF:31
LH:12
end_of_record
TN:
SF:/opt/homebrew/include/gtest/internal/gtest-internal.h
FN:294,294,_ZN7testing8internal13FloatingPointIdEC1ERKd
FN:294,294,_ZN7testing8internal13FloatingPointIdEC2ERKd
FN:316,316,_ZNK7testing8internal13FloatingPointIdE13exponent_bitsEv
FN:319,319,_ZNK7testing8internal13FloatingPointIdE13fraction_bitsEv
FN:325,328,_ZNK7testing8internal13FloatingPointIdE6is_nanEv
FN:337,344,_ZNK7testing8internal13FloatingPointIdE12AlmostEqualsERKS2_
FN:368,376,_ZN7testing8internal13FloatingPointIdE24SignAndMagnitudeToBiasedERKy
FN:380,384,_ZN7testing8internal13FloatingPointIdE38DistanceBetweenSignAndMagnitudeNumbersERKyS4_
FN:438,438,_ZN7testing8internal15TestFactoryBaseD0Ev
FN:438,438,_ZN7testing8internal15TestFactoryBaseD1Ev
FN:438,438,_ZN7testing8internal15TestFactoryBaseD2Ev
FN:445,445,_ZN7testing8internal15TestFactoryBaseC2Ev
FN:455,_ZN7testing8internal15TestFactoryImplI28S21MatrixTest_SumMatrix_TestEC1Ev
FN:455,_ZN7testing8internal15TestFactoryImplI28S21MatrixTest_SumMatrix_TestEC2Ev
FN:455,_ZN7testing8internal15TestFactoryImplI28S21MatrixTest_SumMatrix_TestED0Ev
FN:455,_ZN7testing8internal15TestFactoryImplI28S21MatrixTest_SumMatrix_TestED1Ev
FN:455,_ZN7testing8internal15TestFactoryImplI28S21MatrixTest_SumMatrix_TestED2Ev
FN:455,_ZN7testing8internal15TestFactoryImplI34S21MatrixTest_CopyConstructor_TestEC1Ev
FN:455,_ZN7testing8internal15TestFactoryImplI34S21MatrixTest_CopyConstructor_TestEC2Ev
FN:455,_ZN7testing8internal15TestFactoryImplI34S21MatrixTest_CopyConstructor_TestED0Ev
FN:455,_ZN7testing8internal15TestFactoryImplI34S21MatrixTest_CopyConstructor_TestED1Ev
FN:455,_ZN7testing8internal15TestFactoryImplI34S21MatrixTest_CopyConstructor_TestED2Ev
FN:455,_ZN7testing8internal15TestFactoryImplI35S21MatrixTest_SetValueGetValue_TestEC1Ev
FN:455,_ZN7testing8internal15TestFactoryImplI35S21MatrixTest_SetValueGetValue_TestEC2Ev
FN:455,_ZN7testing8internal15TestFactoryImplI35S21MatrixTest_SetValueGetValue_TestED0Ev
FN:455,_ZN7testing8internal15TestFactoryImplI35S21MatrixTest_SetValueGetValue_TestED1Ev
FN:455,_ZN7testing8internal15TestFactoryImplI35S21MatrixTest_SetValueGetValue_TestED2Ev
FN:455,_ZN7testing8internal15TestFactoryImplI37S21MatrixTest_DefaultConstructor_TestEC1Ev
FN:455,_ZN7testing8internal15TestFactoryImplI37S21MatrixTest_DefaultConstructor_TestEC2Ev
FN:455,_ZN7testing8internal15TestFactoryImplI37S21MatrixTest_DefaultConstructor_TestED0Ev
FN:455,_ZN7testing8internal15TestFactoryImplI37S21MatrixTest_DefaultConstructor_TestED1Ev
FN:455,_ZN7testing8internal15TestFactoryImplI37S21MatrixTest_DefaultConstructor_TestED2Ev
FN:455,_ZN7testing8internal15TestFactoryImplI43S21MatrixTest_ParameterizedConstructor_TestEC1Ev
FN:455,_ZN7testing8internal15TestFactoryImplI43S21MatrixTest_ParameterizedConstructor_TestEC2Ev
FN:455,_ZN7testing8internal15TestFactoryImplI43S21MatrixTest_ParameterizedConstructor_TestED0Ev
FN:455,_ZN7testing8internal15TestFactoryImplI43S21MatrixTest_ParameterizedConstructor_TestED1Ev
FN:455,_ZN7testing8internal15TestFactoryImplI43S21MatrixTest_ParameterizedConstructor_TestED2Ev
FN:457,457,_ZN7testing8internal15TestFactoryImplI28S21MatrixTest_SumMatrix_TestE10CreateTestEv
FN:457,457,_ZN7testing8internal15TestFactoryImplI34S21MatrixTest_CopyConstructor_TestE10CreateTestEv
FN:457,457,_ZN7testing8internal15TestFactoryImplI35S21MatrixTest_SetValueGetValue_TestE10CreateTestEv
FN:457,457,_ZN7testing8internal15TestFactoryImplI37S21MatrixTest_DefaultConstructor_TestE10CreateTestEv
FN:457,457,_ZN7testing8internal15TestFactoryImplI43S21MatrixTest_ParameterizedConstructor_TestE10CreateTestEv
FN:477,_ZN7testing8internal12CodeLocationD1Ev
FN:477,_ZN7testing8internal12CodeLocationD2Ev
FN:478,479,_ZN7testing8internal12CodeLocationC1ERKNSt3__112basic_stringIcNS2_11char_traitsIcEENS2_9allocatorIcEEEEi
FN:478,479,_ZN7testing8internal12CodeLocationC2ERKNSt3__112basic_stringIcNS2_11char_traitsIcEENS2_9allocatorIcEEEEi
FN:491,493,_ZN7testing8internal19GetNotDefaultOrNullEPFvvES2_
FN:506,525,_ZN7testing8internal16SuiteApiResolverINS_4TestEE19GetSetUpCaseOrSuiteEPKci
FN:527,546,_ZN7testing8internal16SuiteApiResolverINS_4TestEE22GetTearDownCaseOrSuiteEPKci
FNDA:2,_ZN7testing8internal13FloatingPointIdEC1ERKd
FNDA:2,_ZN7testing8internal13FloatingPointIdEC2ERKd
FNDA:2,_ZNK7testing8internal13FloatingPointIdE13exponent_bitsEv
FNDA:0,_ZNK7testing8internal13FloatingPointIdE13fraction_bitsEv
FNDA:2,_ZNK7testing8internal13FloatingPointIdE6is_nanEv
FNDA:1,_ZNK7testing8internal13FloatingPointIdE12AlmostEqualsERKS2_
FNDA:2,_ZN7testing8internal13FloatingPointIdE24SignAndMagnitudeToBiasedERKy
FNDA:1,_ZN7testing8internal13FloatingPointIdE38DistanceBetweenSignAndMagnitudeNumbersERKyS4_
FNDA:0,_ZN7testing8internal15TestFactoryBaseD0Ev
FNDA:0,_ZN7testing8internal15TestFactoryBaseD1Ev
FNDA:0,_ZN7testing8internal15TestFactoryBaseD2Ev
FNDA:5,_ZN7testing8internal15TestFactoryBaseC2Ev
FNDA:1,_ZN7testing8internal15TestFactoryImplI28S21MatrixTest_SumMatrix_TestEC1Ev
FNDA:1,_ZN7testing8internal15TestFactoryImplI28S21MatrixTest_SumMatrix_TestEC2Ev
FNDA:0,_ZN7testing8internal15TestFactoryImplI28S21MatrixTest_SumMatrix_TestED0Ev
FNDA:0,_ZN7testing8internal15TestFactoryImplI28S21MatrixTest_SumMatrix_TestED1Ev
FNDA:0,_ZN7testing8internal15TestFactoryImplI28S21MatrixTest_SumMatrix_TestED2Ev
FNDA:1,_ZN7testing8internal15TestFactoryImplI34S21MatrixTest_CopyConstructor_TestEC1Ev
FNDA:1,_ZN7testing8internal15TestFactoryImplI34S21MatrixTest_CopyConstructor_TestEC2Ev
FNDA:0,_ZN7testing8internal15TestFactoryImplI34S21MatrixTest_CopyConstructor_TestED0Ev
FNDA:0,_ZN7testing8internal15TestFactoryImplI34S21MatrixTest_CopyConstructor_TestED1Ev
FNDA:0,_ZN7testing8internal15TestFactoryImplI34S21MatrixTest_CopyConstructor_TestED2Ev
FNDA:1,_ZN7testing8internal15TestFactoryImplI35S21MatrixTest_SetValueGetValue_TestEC1Ev
FNDA:1,_ZN7testing8internal15TestFactoryImplI35S21MatrixTest_SetValueGetValue_TestEC2Ev
FNDA:0,_ZN7testing8internal15TestFactoryImplI35S21MatrixTest_SetValueGetValue_TestED0Ev
FNDA:0,_ZN7testing8internal15TestFactoryImplI35S21MatrixTest_SetValueGetValue_TestED1Ev
FNDA:0,_ZN7testing8internal15TestFactoryImplI35S21MatrixTest_SetValueGetValue_TestED2Ev
FNDA:1,_ZN7testing8internal15TestFactoryImplI37S21MatrixTest_DefaultConstructor_TestEC1Ev
FNDA:1,_ZN7testing8internal15TestFactoryImplI37S21MatrixTest_DefaultConstructor_TestEC2Ev
FNDA:0,_ZN7testing8internal15TestFactoryImplI37S21MatrixTest_DefaultConstructor_TestED0Ev
FNDA:0,_ZN7testing8internal15TestFactoryImplI37S21MatrixTest_DefaultConstructor_TestED1Ev
FNDA:0,_ZN7testing8internal15TestFactoryImplI37S21MatrixTest_DefaultConstructor_TestED2Ev
FNDA:1,_ZN7testing8internal15TestFactoryImplI43S21MatrixTest_ParameterizedConstructor_TestEC1Ev
FNDA:1,_ZN7testing8internal15TestFactoryImplI43S21MatrixTest_ParameterizedConstructor_TestEC2Ev
FNDA:0,_ZN7testing8internal15TestFactoryImplI43S21MatrixTest_ParameterizedConstructor_TestED0Ev
FNDA:0,_ZN7testing8internal15TestFactoryImplI43S21MatrixTest_ParameterizedConstructor_TestED1Ev
FNDA:0,_ZN7testing8internal15TestFactoryImplI43S21MatrixTest_ParameterizedConstructor_TestED2Ev
FNDA:1,_ZN7testing8internal15TestFactoryImplI28S21MatrixTest_SumMatrix_TestE10CreateTestEv
FNDA:1,_ZN7testing8internal15TestFactoryImplI34S21MatrixTest_CopyConstructor_TestE10CreateTestEv
FNDA:1,_ZN7testing8internal15TestFactoryImplI35S21MatrixTest_SetValueGetValue_TestE10CreateTestEv
FNDA:1,_ZN7testing8internal15TestFactoryImplI37S21MatrixTest_DefaultConstructor_TestE10CreateTestEv
FNDA:1,_ZN7testing8internal15TestFactoryImplI43S21MatrixTest_ParameterizedConstructor_TestE10CreateTestEv
FNDA:5,_ZN7testing8internal12CodeLocationD1Ev
FNDA:5,_ZN7testing8internal12CodeLocationD2Ev
FNDA:5,_ZN7testing8internal12CodeLocationC1ERKNSt3__112basic_stringIcNS2_11char_traitsIcEENS2_9allocatorIcEEEEi
FNDA:5,_ZN7testing8internal12CodeLocationC2ERKNSt3__112basic_stringIcNS2_11char_traitsIcEENS2_9allocatorIcEEEEi
FNDA:20,_ZN7testing8internal19GetNotDefaultOrNullEPFvvES2_
FNDA:5,_ZN7testing8internal16SuiteApiResolverINS_4TestEE19GetSetUpCaseOrSuiteEPKci
FNDA:5,_ZN7testing8internal16SuiteApiResolverINS_4TestEE22GetTearDownCaseOrSuiteEPKci
FNF:49
FNH:30
DA:294,4
DA:316,2
DA:319,0
DA:325,2
DA:328,2
DA:337,1
DA:340,1
DA:342,1
DA:344,1
DA:368,2
DA:369,2
DA:371,0
DA:374,2
DA:376,2
DA:380,1
DA:382,1
DA:383,1
DA:384,1
DA:438,0
DA:445,5
DA:457,5
DA:478,10
DA:479,10
DA:491,20
DA:493,20
DA:506,5
DA:509,5
DA:510,5
DA:511,5
DA:512,5
DA:514,5
DA:515,0
DA:517,0
DA:519,5
DA:525,0
DA:527,5
DA:530,5
DA:531,5
DA:532,5
DA:533,5
DA:535,5
DA:536,0
DA:538,0
DA:540,5
DA:546,0
LF:45
LH:36
end_of_record
TN:
SF:/opt/homebrew/include/gtest/internal/gtest-port.h
FN:1042,1042,_ZN7testing8internal8GTestLog9GetStreamEv
FNDA:0,_ZN7testing8internal8GTestLog9GetStreamEv
FNF:1
FNH:0
DA:1042,0
LF:1
LH:0
end_of_record
